; Function Attrs: mustprogress uwtable
define dso_local noundef ptr @_ZN16VariableSelector13choose_ok_varERKSt6vectorIPK8VariableSaIS3_EE(ptr nocapture noundef nonnull readonly align 8 dereferenceable(24) %0) local_unnamed_addr #4 align 2 {
  %2 = getelementptr inbounds i8, ptr %0, i64 8
  %3 = load ptr, ptr %2, align 8
  %4 = load ptr, ptr %0, align 8
  %5 = ptrtoint ptr %3 to i64
  %6 = ptrtoint ptr %4 to i64
  %7 = sub i64 %5, %6
  %8 = lshr exact i64 %7, 3
  %9 = trunc i64 %8 to i32
  %10 = icmp eq i32 %9, 1
  br i1 %10, label %22, label %11

11:                                               ; preds = %1
  %12 = icmp sgt i32 %9, 1
  br i1 %12, label %13, label %.thread

13:                                               ; preds = %11
  %14 = tail call noundef i32 @_ZN9DepthSpec20depth_guard_by_depthEi(i32 noundef 1)
  %.not = icmp eq i32 %14, 0
  br i1 %.not, label %15, label %.thread

15:                                               ; preds = %13
  %16 = tail call noundef i32 @_Z8rnd_uptojPK6FilterPKNSt7__cxx1112basic_stringIcSt11char_traitsIcESaIcEEE(i32 noundef %9, ptr noundef null, ptr noundef null)
  %17 = load i32, ptr @_ZN5Error8r_error_E, align 4
  %.not15 = icmp eq i32 %17, 0
  br i1 %.not15, label %18, label %.thread

18:                                               ; preds = %15
  %19 = zext i32 %16 to i64
  %20 = load ptr, ptr %0, align 8
  %21 = getelementptr inbounds ptr, ptr %20, i64 %19
  br label %22

22:                                               ; preds = %1, %18
  %.013.in = phi ptr [ %21, %18 ], [ %4, %1 ]
  %.013 = load ptr, ptr %.013.in, align 8
  %.not16 = icmp eq ptr %.013, null
  br i1 %.not16, label %.thread, label %23

23:                                               ; preds = %22
  %24 = getelementptr inbounds i8, ptr %.013, i64 96
  %25 = load i8, ptr %24, align 8
  %26 = and i8 %25, 1
  %.not17 = icmp eq i8 %26, 0
  br i1 %.not17, label %.thread, label %27

27:                                               ; preds = %23
  %28 = getelementptr inbounds i8, ptr %.013, i64 200
  %29 = load ptr, ptr %28, align 8
  %30 = icmp eq ptr %29, null
  br i1 %30, label %31, label %.thread

31:                                               ; preds = %27
  %32 = tail call noundef ptr @_ZNK13ArrayVariable7itemizeEv(ptr noundef nonnull align 8 dereferenceable(288) %.013)
  br label %.thread

.thread:                                          ; preds = %11, %22, %23, %31, %27, %15, %13
  %.0 = phi ptr [ null, %13 ], [ null, %15 ], [ %32, %31 ], [ %.013, %27 ], [ %.013, %23 ], [ null, %22 ], [ null, %11 ]
  ret ptr %.0
}